target datalayout = "e-m:e-p270:32:32-p271:32:32-p272:64:64-i64:64-i128:128-f80:128-n8:16:32:64-S128"
target triple = "x86_64-pc-linux-gnu"

%struct.FunctionCallInfoBaseData = type { ptr, ptr, ptr, i32, i8, i16, [0 x %struct.NullableDatum] }
%struct.NullableDatum = type { i64, i8 }
%struct.SignTSVector = type { i32, i32, [0 x i8] }
%struct.anon = type { i32, [0 x i8] }
%struct.GISTENTRY = type { i64, ptr, ptr, i16, i8 }
%struct.CHKVAL = type { ptr, ptr }
%struct.TSQueryData = type { i32, i32, [0 x i8] }

; Function Attrs: inlinehint nounwind uwtable
define internal i64 @BoolGetDatum(i1 noundef zeroext %0) #4 {
  %2 = alloca i8, align 1
  %3 = zext i1 %0 to i8
  store i8 %3, ptr %2, align 1
  %4 = load i8, ptr %2, align 1, !range !4, !noundef !5
  %5 = trunc i8 %4 to i1
  %6 = select i1 %5, i32 1, i32 0
  %7 = sext i32 %6 to i64
  ret i64 %7
}

; Function Attrs: inlinehint nounwind uwtable
define internal ptr @DatumGetTSQuery(i64 noundef %0) #4 {
  %2 = alloca i64, align 8
  store i64 %0, ptr %2, align 8
  %3 = load i64, ptr %2, align 8
  %4 = call ptr @DatumGetPointer(i64 noundef %3)
  ret ptr %4
}

; Function Attrs: inlinehint nounwind uwtable
define internal ptr @DatumGetPointer(i64 noundef %0) #4 {
  %2 = alloca i64, align 8
  store i64 %0, ptr %2, align 8
  %3 = load i64, ptr %2, align 8
  %4 = inttoptr i64 %3 to ptr
  ret ptr %4
}

; Function Attrs: nounwind uwtable
define dso_local i64 @gtsvector_consistent(ptr noundef %0) #0 {
  %2 = alloca i64, align 8
  %3 = alloca ptr, align 8
  %4 = alloca ptr, align 8
  %5 = alloca ptr, align 8
  %6 = alloca ptr, align 8
  %7 = alloca ptr, align 8
  %8 = alloca i32, align 4
  %9 = alloca %struct.CHKVAL, align 8
  store ptr %0, ptr %3, align 8
  call void @llvm.lifetime.start.p0(i64 8, ptr %4) #9
  %10 = load ptr, ptr %3, align 8
  %11 = getelementptr inbounds nuw %struct.FunctionCallInfoBaseData, ptr %10, i32 0, i32 6
  %12 = getelementptr inbounds [0 x %struct.NullableDatum], ptr %11, i64 0, i64 0
  %13 = getelementptr inbounds nuw %struct.NullableDatum, ptr %12, i32 0, i32 0
  %14 = load i64, ptr %13, align 8
  %15 = call ptr @DatumGetPointer(i64 noundef %14)
  store ptr %15, ptr %4, align 8
  call void @llvm.lifetime.start.p0(i64 8, ptr %5) #9
  %16 = load ptr, ptr %3, align 8
  %17 = getelementptr inbounds nuw %struct.FunctionCallInfoBaseData, ptr %16, i32 0, i32 6
  %18 = getelementptr inbounds [0 x %struct.NullableDatum], ptr %17, i64 0, i64 1
  %19 = getelementptr inbounds nuw %struct.NullableDatum, ptr %18, i32 0, i32 0
  %20 = load i64, ptr %19, align 8
  %21 = call ptr @DatumGetTSQuery(i64 noundef %20)
  store ptr %21, ptr %5, align 8
  call void @llvm.lifetime.start.p0(i64 8, ptr %6) #9
  %22 = load ptr, ptr %3, align 8
  %23 = getelementptr inbounds nuw %struct.FunctionCallInfoBaseData, ptr %22, i32 0, i32 6
  %24 = getelementptr inbounds [0 x %struct.NullableDatum], ptr %23, i64 0, i64 4
  %25 = getelementptr inbounds nuw %struct.NullableDatum, ptr %24, i32 0, i32 0
  %26 = load i64, ptr %25, align 8
  %27 = call ptr @DatumGetPointer(i64 noundef %26)
  store ptr %27, ptr %6, align 8
  call void @llvm.lifetime.start.p0(i64 8, ptr %7) #9
  %28 = load ptr, ptr %4, align 8
  %29 = getelementptr inbounds nuw %struct.GISTENTRY, ptr %28, i32 0, i32 0
  %30 = load i64, ptr %29, align 8
  %31 = call ptr @DatumGetPointer(i64 noundef %30)
  store ptr %31, ptr %7, align 8
  %32 = load ptr, ptr %6, align 8
  store i8 1, ptr %32, align 1
  %33 = load ptr, ptr %5, align 8
  %34 = getelementptr inbounds nuw %struct.TSQueryData, ptr %33, i32 0, i32 1
  %35 = load i32, ptr %34, align 4
  %36 = icmp ne i32 %35, 0
  br i1 %36, label %39, label %37

37:                                               ; preds = %1
  %38 = call i64 @BoolGetDatum(i1 noundef zeroext false)
  store i64 %38, ptr %2, align 8
  store i32 1, ptr %8, align 4
  br label %79

39:                                               ; preds = %1
  %40 = load ptr, ptr %7, align 8
  %41 = getelementptr inbounds nuw %struct.SignTSVector, ptr %40, i32 0, i32 1
  %42 = load i32, ptr %41, align 4
  %43 = and i32 %42, 2
  %44 = icmp ne i32 %43, 0
  br i1 %44, label %45, label %59

45:                                               ; preds = %39
  %46 = load ptr, ptr %7, align 8
  %47 = getelementptr inbounds nuw %struct.SignTSVector, ptr %46, i32 0, i32 1
  %48 = load i32, ptr %47, align 4
  %49 = and i32 %48, 4
  %50 = icmp ne i32 %49, 0
  br i1 %50, label %51, label %53

51:                                               ; preds = %45
  %52 = call i64 @BoolGetDatum(i1 noundef zeroext true)
  store i64 %52, ptr %2, align 8
  store i32 1, ptr %8, align 4
  br label %79

53:                                               ; preds = %45
  %54 = load ptr, ptr %5, align 8
  %55 = getelementptr inbounds nuw i8, ptr %54, i64 8
  %56 = load ptr, ptr %7, align 8
  %57 = call zeroext i1 @TS_execute(ptr noundef %55, ptr noundef %56, i32 noundef 2, ptr noundef @checkcondition_bit)
  %58 = call i64 @BoolGetDatum(i1 noundef zeroext %57)
  store i64 %58, ptr %2, align 8
  store i32 1, ptr %8, align 4
  br label %79

59:                                               ; preds = %39
  call void @llvm.lifetime.start.p0(i64 16, ptr %9) #9
  %60 = load ptr, ptr %7, align 8
  %61 = getelementptr inbounds nuw i8, ptr %60, i64 8
  %62 = getelementptr inbounds nuw %struct.CHKVAL, ptr %9, i32 0, i32 0
  store ptr %61, ptr %62, align 8
  %63 = getelementptr inbounds nuw %struct.CHKVAL, ptr %9, i32 0, i32 0
  %64 = load ptr, ptr %63, align 8
  %65 = load ptr, ptr %7, align 8
  %66 = getelementptr inbounds nuw %struct.anon, ptr %65, i32 0, i32 0
  %67 = load i32, ptr %66, align 4
  %68 = lshr i32 %67, 2
  %69 = and i32 %68, 1073741823
  %70 = zext i32 %69 to i64
  %71 = sub i64 %70, 8
  %72 = udiv i64 %71, 4
  %73 = getelementptr inbounds nuw i32, ptr %64, i64 %72
  %74 = getelementptr inbounds nuw %struct.CHKVAL, ptr %9, i32 0, i32 1
  store ptr %73, ptr %74, align 8
  %75 = load ptr, ptr %5, align 8
  %76 = getelementptr inbounds nuw i8, ptr %75, i64 8
  %77 = call zeroext i1 @TS_execute(ptr noundef %76, ptr noundef %9, i32 noundef 2, ptr noundef @checkcondition_arr)
  %78 = call i64 @BoolGetDatum(i1 noundef zeroext %77)
  store i64 %78, ptr %2, align 8
  store i32 1, ptr %8, align 4
  call void @llvm.lifetime.end.p0(i64 16, ptr %9) #9
  br label %79

79:                                               ; preds = %59, %53, %51, %37
  call void @llvm.lifetime.end.p0(i64 8, ptr %7) #9
  call void @llvm.lifetime.end.p0(i64 8, ptr %6) #9
  call void @llvm.lifetime.end.p0(i64 8, ptr %5) #9
  call void @llvm.lifetime.end.p0(i64 8, ptr %4) #9
  %80 = load i64, ptr %2, align 8
  ret i64 %80
}