; Function Attrs: nounwind uwtable
define dso_local range(i64 0, 2) i64 @gtsvector_consistent(ptr noundef readonly captures(none) %0) local_unnamed_addr #4 {
  %2 = alloca %struct.CHKVAL, align 8
  %3 = getelementptr inbounds nuw i8, ptr %0, i64 32
  %4 = load i64, ptr %3, align 8
  %5 = inttoptr i64 %4 to ptr
  %6 = getelementptr inbounds nuw i8, ptr %0, i64 48
  %7 = load i64, ptr %6, align 8
  %8 = inttoptr i64 %7 to ptr
  %9 = getelementptr inbounds nuw i8, ptr %0, i64 96
  %10 = load i64, ptr %9, align 8
  %11 = inttoptr i64 %10 to ptr
  %12 = load i64, ptr %5, align 8
  %13 = inttoptr i64 %12 to ptr
  store i8 1, ptr %11, align 1
  %14 = getelementptr inbounds nuw i8, ptr %8, i64 4
  %15 = load i32, ptr %14, align 4
  %.not = icmp eq i32 %15, 0
  br i1 %.not, label %36, label %16

16:                                               ; preds = %1
  %17 = getelementptr inbounds nuw i8, ptr %13, i64 4
  %18 = load i32, ptr %17, align 4
  %19 = and i32 %18, 2
  %.not13 = icmp eq i32 %19, 0
  br i1 %.not13, label %25, label %20

20:                                               ; preds = %16
  %21 = and i32 %18, 4
  %.not14 = icmp eq i32 %21, 0
  br i1 %.not14, label %22, label %36

22:                                               ; preds = %20
  %23 = getelementptr inbounds nuw i8, ptr %8, i64 8
  %24 = tail call zeroext i1 @TS_execute(ptr noundef nonnull %23, ptr noundef nonnull %13, i32 noundef 2, ptr noundef nonnull @checkcondition_bit) #13
  br label %36

25:                                               ; preds = %16
  call void @llvm.lifetime.start.p0(i64 16, ptr nonnull %2) #13
  %26 = getelementptr inbounds nuw i8, ptr %13, i64 8
  store ptr %26, ptr %2, align 8
  %27 = load i32, ptr %13, align 4
  %28 = lshr i32 %27, 2
  %29 = zext nneg i32 %28 to i64
  %30 = add nsw i64 %29, -8
  %31 = lshr i64 %30, 2
  %32 = getelementptr inbounds nuw i32, ptr %26, i64 %31
  %33 = getelementptr inbounds nuw i8, ptr %2, i64 8
  store ptr %32, ptr %33, align 8
  %34 = getelementptr inbounds nuw i8, ptr %8, i64 8
  %35 = call zeroext i1 @TS_execute(ptr noundef nonnull %34, ptr noundef nonnull %2, i32 noundef 2, ptr noundef nonnull @checkcondition_arr) #13
  call void @llvm.lifetime.end.p0(i64 16, ptr nonnull %2) #13
  br label %36

36:                                               ; preds = %20, %1, %25, %22
  %.0.shrunk = phi i1 [ %24, %22 ], [ %35, %25 ], [ false, %1 ], [ true, %20 ]
  %.0 = zext i1 %.0.shrunk to i64
  ret i64 %.0
}